; Function Attrs: mustprogress uwtable
define void @_ZN13sentencepiece9character5ModelC2ERKNS_10ModelProtoE(ptr noundef nonnull align 8 dereferenceable(152) %0, ptr noundef nonnull align 8 dereferenceable(104) %1) unnamed_addr #3 align 2 personality ptr @__gxx_personality_v0 {
  store ptr getelementptr inbounds inrange(-16, 200) (i8, ptr @_ZTVN13sentencepiece14ModelInterfaceE, i64 16), ptr %0, align 8
  %3 = getelementptr inbounds i8, ptr %0, i64 8
  %4 = getelementptr inbounds i8, ptr %0, i64 24
  %5 = getelementptr inbounds i8, ptr %0, i64 72
  tail call void @llvm.memset.p0.i64(ptr noundef nonnull align 8 dereferenceable(16) %3, i8 0, i64 16, i1 false)
  store ptr %5, ptr %4, align 8
  %6 = getelementptr inbounds i8, ptr %0, i64 32
  store i64 1, ptr %6, align 8
  %7 = getelementptr inbounds i8, ptr %0, i64 40
  %8 = getelementptr inbounds i8, ptr %0, i64 56
  tail call void @llvm.memset.p0.i64(ptr noundef nonnull align 8 dereferenceable(16) %7, i8 0, i64 16, i1 false)
  store float 1.000000e+00, ptr %8, align 8
  %9 = getelementptr inbounds i8, ptr %0, i64 64
  tail call void @llvm.memset.p0.i64(ptr noundef nonnull align 8 dereferenceable(16) %9, i8 0, i64 16, i1 false)
  %10 = getelementptr inbounds i8, ptr %0, i64 80
  %11 = getelementptr inbounds i8, ptr %0, i64 128
  store ptr %11, ptr %10, align 8
  %12 = getelementptr inbounds i8, ptr %0, i64 88
  store i64 1, ptr %12, align 8
  %13 = getelementptr inbounds i8, ptr %0, i64 96
  %14 = getelementptr inbounds i8, ptr %0, i64 112
  tail call void @llvm.memset.p0.i64(ptr noundef nonnull align 8 dereferenceable(16) %13, i8 0, i64 16, i1 false)
  store float 1.000000e+00, ptr %14, align 8
  %15 = getelementptr inbounds i8, ptr %0, i64 120
  %16 = getelementptr inbounds i8, ptr %0, i64 144
  tail call void @llvm.memset.p0.i64(ptr noundef nonnull align 8 dereferenceable(20) %15, i8 0, i64 20, i1 false)
  invoke void @_ZN13sentencepiece4util6StatusC1Ev(ptr noundef nonnull align 8 dereferenceable(8) %16)
          to label %_ZN13sentencepiece14ModelInterfaceC2Ev.exit unwind label %17

common.resume:                                    ; preds = %21, %17
  %common.resume.op = phi { ptr, i32 } [ %18, %17 ], [ %22, %21 ]
  resume { ptr, i32 } %common.resume.op

17:                                               ; preds = %2
  %18 = landingpad { ptr, i32 }
          cleanup
  %19 = getelementptr inbounds i8, ptr %0, i64 16
  tail call void @_ZNSt13unordered_mapISt17basic_string_viewIcSt11char_traitsIcEEiSt4hashIS3_ESt8equal_toIS3_ESaISt4pairIKS3_iEEED2Ev(ptr noundef nonnull align 8 dereferenceable(56) %10) #14
  tail call void @_ZNSt13unordered_mapISt17basic_string_viewIcSt11char_traitsIcEEiSt4hashIS3_ESt8equal_toIS3_ESaISt4pairIKS3_iEEED2Ev(ptr noundef nonnull align 8 dereferenceable(56) %4) #14
  tail call void @_ZNSt10unique_ptrIN13sentencepiece10normalizer13PrefixMatcherESt14default_deleteIS2_EED2Ev(ptr noundef nonnull align 8 dereferenceable(8) %19) #14
  br label %common.resume

_ZN13sentencepiece14ModelInterfaceC2Ev.exit:      ; preds = %2
  store ptr getelementptr inbounds inrange(-16, 200) (i8, ptr @_ZTVN13sentencepiece9character5ModelE, i64 16), ptr %0, align 8
  store ptr %1, ptr %3, align 8
  invoke void @_ZN13sentencepiece14ModelInterface16InitializePiecesEv(ptr noundef nonnull align 8 dereferenceable(152) %0)
          to label %20 unwind label %21

20:                                               ; preds = %_ZN13sentencepiece14ModelInterfaceC2Ev.exit
  ret void

21:                                               ; preds = %_ZN13sentencepiece14ModelInterfaceC2Ev.exit
  %22 = landingpad { ptr, i32 }
          cleanup
  tail call void @_ZN13sentencepiece14ModelInterfaceD2Ev(ptr noundef nonnull align 8 dereferenceable(152) %0) #14
  br label %common.resume
}